target datalayout = "e-m:e-p270:32:32-p271:32:32-p272:64:64-i64:64-i128:128-f80:128-n8:16:32:64-S128"
target triple = "x86_64-pc-linux-gnu"

%class.G1RegionMarkStatsCache = type { ptr, ptr, i32, i64, i64, i64 }
%"struct.G1RegionMarkStatsCache::G1RegionMarkStatsCacheEntry" = type { i32, %struct.G1RegionMarkStats }
%struct.G1RegionMarkStats = type { i64 }

@g_assert_poison = external global ptr, align 8
@.str = private unnamed_addr constant [51 x i8] c"src/hotspot/share/gc/g1/g1RegionMarkStatsCache.cpp\00", align 1
@.str.4 = private unnamed_addr constant [51 x i8] c"guarantee(is_power_of_2(num_cache_entries)) failed\00", align 1
@.str.5 = private unnamed_addr constant [56 x i8] c"Number of cache entries must be power of two, but is %u\00", align 1

; Function Attrs: mustprogress nounwind uwtable
define linkonce_odr hidden void @_ZN17G1RegionMarkStats5clearEv(ptr noundef nonnull align 8 dereferenceable(8) %0) #1 comdat align 2 {
  %2 = alloca ptr, align 8
  store ptr %0, ptr %2, align 8
  %3 = load ptr, ptr %2, align 8
  %4 = getelementptr inbounds %struct.G1RegionMarkStats, ptr %3, i32 0, i32 0
  store i64 0, ptr %4, align 8
  ret void
}

; Function Attrs: mustprogress nounwind uwtable
define linkonce_odr hidden void @_ZN22G1RegionMarkStatsCache27G1RegionMarkStatsCacheEntry5clearEj(ptr noundef nonnull align 8 dereferenceable(16) %0, i32 noundef %1) #1 comdat align 2 {
  %3 = alloca ptr, align 8
  %4 = alloca i32, align 4
  store ptr %0, ptr %3, align 8
  store i32 %1, ptr %4, align 4
  %5 = load ptr, ptr %3, align 8
  %6 = load i32, ptr %4, align 4
  %7 = getelementptr inbounds %"struct.G1RegionMarkStatsCache::G1RegionMarkStatsCacheEntry", ptr %5, i32 0, i32 0
  store i32 %6, ptr %7, align 8
  %8 = getelementptr inbounds %"struct.G1RegionMarkStatsCache::G1RegionMarkStatsCacheEntry", ptr %5, i32 0, i32 1
  call void @_ZN17G1RegionMarkStats5clearEv(ptr noundef nonnull align 8 dereferenceable(8) %8)
  ret void
}

; Function Attrs: mustprogress nounwind uwtable
define hidden void @_ZN22G1RegionMarkStatsCache5resetEv(ptr noundef nonnull align 8 dereferenceable(48) %0) #1 align 2 {
  %2 = alloca ptr, align 8
  %3 = alloca i32, align 4
  store ptr %0, ptr %2, align 8
  %4 = load ptr, ptr %2, align 8
  %5 = getelementptr inbounds %class.G1RegionMarkStatsCache, ptr %4, i32 0, i32 3
  store i64 0, ptr %5, align 8
  %6 = getelementptr inbounds %class.G1RegionMarkStatsCache, ptr %4, i32 0, i32 4
  store i64 0, ptr %6, align 8
  store i32 0, ptr %3, align 4
  br label %7

7:                                                ; preds = %19, %1
  %8 = load i32, ptr %3, align 4
  %9 = getelementptr inbounds %class.G1RegionMarkStatsCache, ptr %4, i32 0, i32 2
  %10 = load i32, ptr %9, align 8
  %11 = icmp ult i32 %8, %10
  br i1 %11, label %12, label %22

12:                                               ; preds = %7
  %13 = getelementptr inbounds %class.G1RegionMarkStatsCache, ptr %4, i32 0, i32 1
  %14 = load ptr, ptr %13, align 8
  %15 = load i32, ptr %3, align 4
  %16 = zext i32 %15 to i64
  %17 = getelementptr inbounds %"struct.G1RegionMarkStatsCache::G1RegionMarkStatsCacheEntry", ptr %14, i64 %16
  %18 = load i32, ptr %3, align 4
  call void @_ZN22G1RegionMarkStatsCache27G1RegionMarkStatsCacheEntry5clearEj(ptr noundef nonnull align 8 dereferenceable(16) %17, i32 noundef %18)
  br label %19

19:                                               ; preds = %12
  %20 = load i32, ptr %3, align 4
  %21 = add i32 %20, 1
  store i32 %21, ptr %3, align 4
  br label %7, !llvm.loop !6

22:                                               ; preds = %7
  ret void
}

; Function Attrs: mustprogress nounwind uwtable
define linkonce_odr hidden noundef zeroext i1 @_Z13is_power_of_2IjTnNSt9enable_ifIXcvbsr3std11is_integralIT_EE5valueEiE4typeELi0EEbS1_(i32 noundef %0) #1 comdat {
  %2 = alloca i32, align 4
  store i32 %0, ptr %2, align 4
  %3 = load i32, ptr %2, align 4
  %4 = icmp ugt i32 %3, 0
  br i1 %4, label %5, label %11

5:                                                ; preds = %1
  %6 = load i32, ptr %2, align 4
  %7 = load i32, ptr %2, align 4
  %8 = sub i32 %7, 1
  %9 = and i32 %6, %8
  %10 = icmp eq i32 %9, 0
  br label %11

11:                                               ; preds = %5, %1
  %12 = phi i1 [ false, %1 ], [ %10, %5 ]
  ret i1 %12
}

; Function Attrs: mustprogress nounwind uwtable
define hidden void @_ZN22G1RegionMarkStatsCacheC2EP17G1RegionMarkStatsj(ptr noundef nonnull align 8 dereferenceable(48) %0, ptr noundef %1, i32 noundef %2) unnamed_addr #1 align 2 {
  %4 = alloca ptr, align 8
  %5 = alloca ptr, align 8
  %6 = alloca i32, align 4
  store ptr %0, ptr %4, align 8
  store ptr %1, ptr %5, align 8
  store i32 %2, ptr %6, align 4
  %7 = load ptr, ptr %4, align 8
  %8 = getelementptr inbounds %class.G1RegionMarkStatsCache, ptr %7, i32 0, i32 0
  %9 = load ptr, ptr %5, align 8
  store ptr %9, ptr %8, align 8
  %10 = getelementptr inbounds %class.G1RegionMarkStatsCache, ptr %7, i32 0, i32 2
  %11 = load i32, ptr %6, align 4
  store i32 %11, ptr %10, align 8
  %12 = getelementptr inbounds %class.G1RegionMarkStatsCache, ptr %7, i32 0, i32 5
  %13 = getelementptr inbounds %class.G1RegionMarkStatsCache, ptr %7, i32 0, i32 2
  %14 = load i32, ptr %13, align 8
  %15 = sub i32 %14, 1
  %16 = zext i32 %15 to i64
  store i64 %16, ptr %12, align 8
  br label %17

17:                                               ; preds = %3
  %18 = load i32, ptr %6, align 4
  %19 = call noundef zeroext i1 @_Z13is_power_of_2IjTnNSt9enable_ifIXcvbsr3std11is_integralIT_EE5valueEiE4typeELi0EEbS1_(i32 noundef %18)
  br i1 %19, label %23, label %20

20:                                               ; preds = %17
  %21 = load ptr, ptr @g_assert_poison, align 8
  store i8 88, ptr %21, align 1
  %22 = load i32, ptr %6, align 4
  call void (ptr, i32, ptr, ptr, ...) @_Z15report_vm_errorPKciS0_S0_z(ptr noundef @.str, i32 noundef 37, ptr noundef @.str.4, ptr noundef @.str.5, i32 noundef %22) #8
  unreachable

23:                                               ; preds = %17
  br label %24

24:                                               ; preds = %23
  %25 = getelementptr inbounds %class.G1RegionMarkStatsCache, ptr %7, i32 0, i32 2
  %26 = load i32, ptr %25, align 8
  %27 = zext i32 %26 to i64
  %28 = mul i64 %27, 16
  %29 = call noundef ptr @_Z12AllocateHeapm8MEMFLAGSN17AllocFailStrategy13AllocFailEnumE(i64 noundef %28, i8 noundef zeroext 5, i32 noundef 0)
  %30 = getelementptr inbounds %class.G1RegionMarkStatsCache, ptr %7, i32 0, i32 1
  store ptr %29, ptr %30, align 8
  call void @_ZN22G1RegionMarkStatsCache5resetEv(ptr noundef nonnull align 8 dereferenceable(48) %7)
  ret void
}