; Function Attrs: mustprogress nounwind uwtable
define hidden void @_ZN22G1RegionMarkStatsCacheC2EP17G1RegionMarkStatsj(ptr nocapture noundef nonnull align 8 dereferenceable(48) %0, ptr noundef %1, i32 noundef %2) unnamed_addr #0 align 2 {
  store ptr %1, ptr %0, align 8
  %4 = getelementptr inbounds i8, ptr %0, i64 16
  store i32 %2, ptr %4, align 8
  %5 = getelementptr inbounds i8, ptr %0, i64 40
  %6 = add i32 %2, -1
  %7 = zext i32 %6 to i64
  store i64 %7, ptr %5, align 8
  %8 = tail call range(i32 0, 33) i32 @llvm.ctpop.i32(i32 %2)
  %or.cond = icmp eq i32 %8, 1
  br i1 %or.cond, label %10, label %_Z13is_power_of_2IjTnNSt9enable_ifIXcvbsr3std11is_integralIT_EE5valueEiE4typeELi0EEbS1_.exit.thread

_Z13is_power_of_2IjTnNSt9enable_ifIXcvbsr3std11is_integralIT_EE5valueEiE4typeELi0EEbS1_.exit.thread: ; preds = %3
  %9 = load ptr, ptr @g_assert_poison, align 8
  store i8 88, ptr %9, align 1
  tail call void (ptr, i32, ptr, ptr, ...) @_Z15report_vm_errorPKciS0_S0_z(ptr noundef nonnull @.str, i32 noundef 37, ptr noundef nonnull @.str.4, ptr noundef nonnull @.str.5, i32 noundef %2) #10
  unreachable

10:                                               ; preds = %3
  %11 = zext i32 %2 to i64
  %12 = shl nuw nsw i64 %11, 4
  %13 = tail call noundef ptr @_Z12AllocateHeapm8MEMFLAGSN17AllocFailStrategy13AllocFailEnumE(i64 noundef %12, i8 noundef zeroext 5, i32 noundef 0) #11
  %14 = getelementptr inbounds i8, ptr %0, i64 8
  store ptr %13, ptr %14, align 8
  %15 = getelementptr inbounds i8, ptr %0, i64 24
  tail call void @llvm.memset.p0.i64(ptr noundef nonnull align 8 dereferenceable(16) %15, i8 0, i64 16, i1 false)
  %16 = load i32, ptr %4, align 8
  %.not.i4 = icmp eq i32 %16, 0
  br i1 %.not.i4, label %_ZN22G1RegionMarkStatsCache5resetEv.exit, label %.lr.ph.i

.lr.ph.i:                                         ; preds = %10, %.lr.ph.i
  %indvars.iv.i = phi i64 [ %indvars.iv.next.i, %.lr.ph.i ], [ 0, %10 ]
  %17 = load ptr, ptr %14, align 8
  %18 = getelementptr inbounds %"struct.G1RegionMarkStatsCache::G1RegionMarkStatsCacheEntry", ptr %17, i64 %indvars.iv.i
  %19 = trunc nuw i64 %indvars.iv.i to i32
  store i32 %19, ptr %18, align 8
  %20 = getelementptr inbounds i8, ptr %18, i64 8
  store i64 0, ptr %20, align 8
  %indvars.iv.next.i = add nuw nsw i64 %indvars.iv.i, 1
  %21 = load i32, ptr %4, align 8
  %22 = zext i32 %21 to i64
  %23 = icmp ult i64 %indvars.iv.next.i, %22
  br i1 %23, label %.lr.ph.i, label %_ZN22G1RegionMarkStatsCache5resetEv.exit, !llvm.loop !6

_ZN22G1RegionMarkStatsCache5resetEv.exit:         ; preds = %.lr.ph.i, %10
  ret void
}